; Function Attrs: mustprogress uwtable
define hidden noundef i32 @_ZN4cvc56parser14Smt2TermParser18tokenStrToUnsignedEv(ptr nocapture noundef nonnull readonly align 8 dereferenceable(24) %this) local_unnamed_addr #5 align 2 personality ptr @__gxx_personality_v0 {
entry:
  %token = alloca %"class.std::__cxx11::basic_string", align 8
  %ref.tmp = alloca %"class.std::allocator", align 1
  %ref.tmp11 = alloca %"class.std::__cxx11::basic_string", align 8
  %ref.tmp12 = alloca %"class.std::allocator", align 1
  %result = alloca i32, align 4
  %ss = alloca %"class.std::__cxx11::basic_stringstream", align 8
  %d_lex = getelementptr inbounds i8, ptr %this, i64 8
  %0 = load ptr, ptr %d_lex, align 8
  %call = tail call noundef zeroext i1 @_ZNK4cvc56parser9Smt2Lexer8isStrictEv(ptr noundef nonnull align 8 dereferenceable(33178) %0)
  br i1 %call, label %if.then, label %if.end18

if.then:                                          ; preds = %entry
  %1 = load ptr, ptr %d_lex, align 8
  %vtable = load ptr, ptr %1, align 8
  %vfn = getelementptr inbounds i8, ptr %vtable, i64 24
  %2 = load ptr, ptr %vfn, align 8
  %call3 = tail call noundef ptr %2(ptr noundef nonnull align 8 dereferenceable(33178) %1)
  call void @_ZNSaIcEC1Ev(ptr noundef nonnull align 1 dereferenceable(1) %ref.tmp) #19
  %call.i5 = invoke noundef ptr @_ZNSt7__cxx1112basic_stringIcSt11char_traitsIcESaIcEE13_M_local_dataEv(ptr noundef nonnull align 8 dereferenceable(32) %token)
          to label %call.i.noexc unwind label %lpad

call.i.noexc:                                     ; preds = %if.then
  invoke void @_ZNSt7__cxx1112basic_stringIcSt11char_traitsIcESaIcEE12_Alloc_hiderC1EPcRKS3_(ptr noundef nonnull align 8 dereferenceable(8) %token, ptr noundef %call.i5, ptr noundef nonnull align 1 dereferenceable(1) %ref.tmp)
          to label %.noexc unwind label %lpad

.noexc:                                           ; preds = %call.i.noexc
  %cmp.i = icmp eq ptr %call3, null
  br i1 %cmp.i, label %if.then.i, label %if.end.i

if.then.i:                                        ; preds = %.noexc
  invoke void @_ZSt19__throw_logic_errorPKc(ptr noundef nonnull @.str.60) #21
          to label %invoke.cont.i unwind label %lpad.i

invoke.cont.i:                                    ; preds = %if.then.i
  unreachable

lpad.i:                                           ; preds = %if.end.i, %if.then.i
  %3 = landingpad { ptr, i32 }
          cleanup
  call void @_ZNSaIcED2Ev(ptr noundef nonnull align 1 dereferenceable(1) %token) #19
  br label %lpad.body

if.end.i:                                         ; preds = %.noexc
  %call.i.i = call noundef i64 @strlen(ptr noundef nonnull dereferenceable(1) %call3) #19
  %add.ptr.i = getelementptr inbounds i8, ptr %call3, i64 %call.i.i
  invoke void @_ZNSt7__cxx1112basic_stringIcSt11char_traitsIcESaIcEE12_M_constructIPKcEEvT_S8_St20forward_iterator_tag(ptr noundef nonnull align 8 dereferenceable(32) %token, ptr noundef nonnull %call3, ptr noundef nonnull %add.ptr.i)
          to label %invoke.cont unwind label %lpad.i

invoke.cont:                                      ; preds = %if.end.i
  call void @_ZNSaIcED1Ev(ptr noundef nonnull align 1 dereferenceable(1) %ref.tmp) #19
  %call4 = call noundef i64 @_ZNKSt7__cxx1112basic_stringIcSt11char_traitsIcESaIcEE4sizeEv(ptr noundef nonnull align 8 dereferenceable(32) %token) #19
  %cmp = icmp ugt i64 %call4, 1
  br i1 %cmp, label %land.lhs.true, label %if.end

land.lhs.true:                                    ; preds = %invoke.cont
  %call7 = invoke noundef nonnull align 1 dereferenceable(1) ptr @_ZNSt7__cxx1112basic_stringIcSt11char_traitsIcESaIcEEixEm(ptr noundef nonnull align 8 dereferenceable(32) %token, i64 noundef 0)
          to label %invoke.cont6 unwind label %lpad5

invoke.cont6:                                     ; preds = %land.lhs.true
  %4 = load i8, ptr %call7, align 1
  %cmp8 = icmp eq i8 %4, 48
  br i1 %cmp8, label %if.then9, label %if.end

if.then9:                                         ; preds = %invoke.cont6
  %5 = load ptr, ptr %d_lex, align 8
  call void @_ZNSaIcEC1Ev(ptr noundef nonnull align 1 dereferenceable(1) %ref.tmp12) #19
  %call.i11 = invoke noundef ptr @_ZNSt7__cxx1112basic_stringIcSt11char_traitsIcESaIcEE13_M_local_dataEv(ptr noundef nonnull align 8 dereferenceable(32) %ref.tmp11)
          to label %call.i.noexc10 unwind label %lpad13

call.i.noexc10:                                   ; preds = %if.then9
  invoke void @_ZNSt7__cxx1112basic_stringIcSt11char_traitsIcESaIcEE12_Alloc_hiderC1EPcRKS3_(ptr noundef nonnull align 8 dereferenceable(8) %ref.tmp11, ptr noundef %call.i11, ptr noundef nonnull align 1 dereferenceable(1) %ref.tmp12)
          to label %.noexc12 unwind label %lpad13

.noexc12:                                         ; preds = %call.i.noexc10
  invoke void @_ZNSt7__cxx1112basic_stringIcSt11char_traitsIcESaIcEE12_M_constructIPKcEEvT_S8_St20forward_iterator_tag(ptr noundef nonnull align 8 dereferenceable(32) %ref.tmp11, ptr noundef nonnull @.str.35, ptr noundef nonnull getelementptr inbounds ([42 x i8], ptr @.str.35, i64 0, i64 41))
          to label %invoke.cont14 unwind label %lpad.i9

lpad.i9:                                          ; preds = %.noexc12
  %6 = landingpad { ptr, i32 }
          cleanup
  call void @_ZNSaIcED2Ev(ptr noundef nonnull align 1 dereferenceable(1) %ref.tmp11) #19
  br label %ehcleanup

invoke.cont14:                                    ; preds = %.noexc12
  invoke void @_ZN4cvc56parser5Lexer10parseErrorERKNSt7__cxx1112basic_stringIcSt11char_traitsIcESaIcEEEb(ptr noundef nonnull align 8 dereferenceable(32892) %5, ptr noundef nonnull align 8 dereferenceable(32) %ref.tmp11, i1 noundef zeroext false)
          to label %invoke.cont16 unwind label %lpad15

invoke.cont16:                                    ; preds = %invoke.cont14
  call void @_ZNSt7__cxx1112basic_stringIcSt11char_traitsIcESaIcEED1Ev(ptr noundef nonnull align 8 dereferenceable(32) %ref.tmp11) #19
  call void @_ZNSaIcED1Ev(ptr noundef nonnull align 1 dereferenceable(1) %ref.tmp12) #19
  br label %if.end

lpad:                                             ; preds = %call.i.noexc, %if.then
  %7 = landingpad { ptr, i32 }
          cleanup
  br label %lpad.body

lpad.body:                                        ; preds = %lpad.i, %lpad
  %eh.lpad-body = phi { ptr, i32 } [ %7, %lpad ], [ %3, %lpad.i ]
  call void @_ZNSaIcED1Ev(ptr noundef nonnull align 1 dereferenceable(1) %ref.tmp) #19
  br label %eh.resume

lpad5:                                            ; preds = %land.lhs.true
  %8 = landingpad { ptr, i32 }
          cleanup
  br label %ehcleanup17

lpad13:                                           ; preds = %call.i.noexc10, %if.then9
  %9 = landingpad { ptr, i32 }
          cleanup
  br label %ehcleanup

lpad15:                                           ; preds = %invoke.cont14
  %10 = landingpad { ptr, i32 }
          cleanup
  call void @_ZNSt7__cxx1112basic_stringIcSt11char_traitsIcESaIcEED1Ev(ptr noundef nonnull align 8 dereferenceable(32) %ref.tmp11) #19
  br label %ehcleanup

ehcleanup:                                        ; preds = %lpad13, %lpad.i9, %lpad15
  %.pn = phi { ptr, i32 } [ %10, %lpad15 ], [ %9, %lpad13 ], [ %6, %lpad.i9 ]
  call void @_ZNSaIcED1Ev(ptr noundef nonnull align 1 dereferenceable(1) %ref.tmp12) #19
  br label %ehcleanup17

if.end:                                           ; preds = %invoke.cont16, %invoke.cont6, %invoke.cont
  call void @_ZNSt7__cxx1112basic_stringIcSt11char_traitsIcESaIcEED1Ev(ptr noundef nonnull align 8 dereferenceable(32) %token) #19
  br label %if.end18

ehcleanup17:                                      ; preds = %ehcleanup, %lpad5
  %.pn.pn = phi { ptr, i32 } [ %.pn, %ehcleanup ], [ %8, %lpad5 ]
  call void @_ZNSt7__cxx1112basic_stringIcSt11char_traitsIcESaIcEED1Ev(ptr noundef nonnull align 8 dereferenceable(32) %token) #19
  br label %eh.resume

if.end18:                                         ; preds = %if.end, %entry
  call void @_ZNSt7__cxx1118basic_stringstreamIcSt11char_traitsIcESaIcEEC1Ev(ptr noundef nonnull align 8 dereferenceable(128) %ss)
  %11 = load ptr, ptr %d_lex, align 8
  %vtable20 = load ptr, ptr %11, align 8
  %vfn21 = getelementptr inbounds i8, ptr %vtable20, i64 24
  %12 = load ptr, ptr %vfn21, align 8
  %call24 = invoke noundef ptr %12(ptr noundef nonnull align 8 dereferenceable(33178) %11)
          to label %invoke.cont23 unwind label %lpad22

invoke.cont23:                                    ; preds = %if.end18
  %add.ptr = getelementptr inbounds i8, ptr %ss, i64 16
  %call26 = invoke noundef nonnull align 8 dereferenceable(8) ptr @_ZStlsISt11char_traitsIcEERSt13basic_ostreamIcT_ES5_PKc(ptr noundef nonnull align 8 dereferenceable(8) %add.ptr, ptr noundef %call24)
          to label %invoke.cont25 unwind label %lpad22

invoke.cont25:                                    ; preds = %invoke.cont23
  %call28 = invoke noundef nonnull align 8 dereferenceable(16) ptr @_ZNSirsERj(ptr noundef nonnull align 8 dereferenceable(16) %ss, ptr noundef nonnull align 4 dereferenceable(4) %result)
          to label %invoke.cont27 unwind label %lpad22

invoke.cont27:                                    ; preds = %invoke.cont25
  %13 = load i32, ptr %result, align 4
  call void @_ZNSt7__cxx1118basic_stringstreamIcSt11char_traitsIcESaIcEED1Ev(ptr noundef nonnull align 8 dereferenceable(128) %ss) #19
  ret i32 %13

lpad22:                                           ; preds = %invoke.cont25, %invoke.cont23, %if.end18
  %14 = landingpad { ptr, i32 }
          cleanup
  call void @_ZNSt7__cxx1118basic_stringstreamIcSt11char_traitsIcESaIcEED1Ev(ptr noundef nonnull align 8 dereferenceable(128) %ss) #19
  br label %eh.resume

eh.resume:                                        ; preds = %lpad22, %ehcleanup17, %lpad.body
  %.pn3 = phi { ptr, i32 } [ %14, %lpad22 ], [ %.pn.pn, %ehcleanup17 ], [ %eh.lpad-body, %lpad.body ]
  resume { ptr, i32 } %.pn3
}